; Function Attrs: nofree nounwind uwtable
define void @Fxch_ManComputeLevel(ptr noundef captures(none) initializes((80, 88)) %0) local_unnamed_addr #9 {
  %2 = load ptr, ptr %0, align 8, !tbaa !3
  %3 = getelementptr i8, ptr %2, i64 8
  %.val23 = load ptr, ptr %3, align 8, !tbaa !39
  %4 = getelementptr i8, ptr %.val23, i64 8
  %.val26 = load ptr, ptr %4, align 8, !tbaa !25
  %5 = load i32, ptr %.val26, align 4, !tbaa !60
  %6 = getelementptr inbounds nuw i8, ptr %0, i64 192
  %7 = load i32, ptr %6, align 8, !tbaa !58
  %8 = tail call noalias dereferenceable_or_null(16) ptr @malloc(i64 noundef 16) #20
  %9 = add i32 %7, -1
  %or.cond.i.i = icmp ult i32 %9, 15
  %spec.store.select.i.i = select i1 %or.cond.i.i, i32 16, i32 %7
  %10 = getelementptr inbounds nuw i8, ptr %8, i64 4
  store i32 %spec.store.select.i.i, ptr %8, align 8, !tbaa !23
  %.not.i.i = icmp eq i32 %spec.store.select.i.i, 0
  br i1 %.not.i.i, label %Vec_IntAlloc.exit.thread.i, label %Vec_IntAlloc.exit.i

Vec_IntAlloc.exit.thread.i:                       ; preds = %1
  %11 = getelementptr inbounds nuw i8, ptr %8, i64 8
  store ptr null, ptr %11, align 8, !tbaa !25
  store i32 %7, ptr %10, align 4, !tbaa !26
  br label %Vec_IntStart.exit

Vec_IntAlloc.exit.i:                              ; preds = %1
  %12 = sext i32 %spec.store.select.i.i to i64
  %13 = shl nsw i64 %12, 2
  %14 = tail call noalias ptr @malloc(i64 noundef %13) #20
  %15 = getelementptr inbounds nuw i8, ptr %8, i64 8
  store ptr %14, ptr %15, align 8, !tbaa !25
  store i32 %7, ptr %10, align 4, !tbaa !26
  %.not.i = icmp eq ptr %14, null
  br i1 %.not.i, label %Vec_IntStart.exit, label %16

16:                                               ; preds = %Vec_IntAlloc.exit.i
  %17 = sext i32 %7 to i64
  %18 = shl nsw i64 %17, 2
  tail call void @llvm.memset.p0.i64(ptr nonnull align 4 %14, i8 0, i64 %18, i1 false)
  br label %Vec_IntStart.exit

Vec_IntStart.exit:                                ; preds = %Vec_IntAlloc.exit.thread.i, %Vec_IntAlloc.exit.i, %16
  %.val.i = phi ptr [ null, %Vec_IntAlloc.exit.thread.i ], [ null, %Vec_IntAlloc.exit.i ], [ %14, %16 ]
  %19 = getelementptr inbounds nuw i8, ptr %0, i64 80
  store ptr %8, ptr %19, align 8, !tbaa !57
  %20 = getelementptr i8, ptr %2, i64 4
  %.val29 = load i32, ptr %20, align 4, !tbaa !17
  %21 = icmp sgt i32 %.val29, 0
  br i1 %21, label %.lr.ph, label %.critedge

.lr.ph:                                           ; preds = %Vec_IntStart.exit, %Vec_IntUpdateEntry.exit
  %indvars.iv = phi i64 [ %indvars.iv.next, %Vec_IntUpdateEntry.exit ], [ 0, %Vec_IntStart.exit ]
  %.032 = phi i32 [ %.1, %Vec_IntUpdateEntry.exit ], [ 0, %Vec_IntStart.exit ]
  %.01931 = phi i32 [ %.120, %Vec_IntUpdateEntry.exit ], [ %5, %Vec_IntStart.exit ]
  %22 = getelementptr inbounds nuw %struct.Vec_Int_t_, ptr %.val23, i64 %indvars.iv
  %23 = getelementptr i8, ptr %22, i64 8
  %.val25 = load ptr, ptr %23, align 8, !tbaa !25
  %24 = load i32, ptr %.val25, align 4, !tbaa !60
  %.not = icmp eq i32 %.01931, %24
  br i1 %.not, label %33, label %25

25:                                               ; preds = %.lr.ph
  %26 = trunc nuw nsw i64 %indvars.iv to i32
  %27 = sub nsw i32 %26, %.032
  %28 = sext i32 %.01931 to i64
  %29 = getelementptr inbounds i32, ptr %.val.i, i64 %28
  %30 = load i32, ptr %29, align 4, !tbaa !60
  %31 = add nsw i32 %27, %30
  store i32 %31, ptr %29, align 4, !tbaa !60
  %32 = load i32, ptr %.val25, align 4, !tbaa !60
  br label %33

33:                                               ; preds = %25, %.lr.ph
  %.120 = phi i32 [ %32, %25 ], [ %.01931, %.lr.ph ]
  %.1 = phi i32 [ %26, %25 ], [ %.032, %.lr.ph ]
  %34 = getelementptr i8, ptr %22, i64 4
  %.val10.i = load i32, ptr %34, align 4, !tbaa !26
  %35 = icmp sgt i32 %.val10.i, 1
  br i1 %35, label %.lr.ph.i, label %Fxch_ManComputeLevelCube.exit

.lr.ph.i:                                         ; preds = %33
  %wide.trip.count.i = zext nneg i32 %.val10.i to i64
  br label %36

36:                                               ; preds = %36, %.lr.ph.i
  %indvars.iv.i = phi i64 [ 1, %.lr.ph.i ], [ %indvars.iv.next.i, %36 ]
  %.012.i = phi i32 [ 0, %.lr.ph.i ], [ %43, %36 ]
  %37 = getelementptr inbounds nuw i32, ptr %.val25, i64 %indvars.iv.i
  %38 = load i32, ptr %37, align 4, !tbaa !60
  %39 = ashr i32 %38, 1
  %40 = sext i32 %39 to i64
  %41 = getelementptr inbounds i32, ptr %.val.i, i64 %40
  %42 = load i32, ptr %41, align 4, !tbaa !60
  %43 = tail call noundef i32 @llvm.smax.i32(i32 %.012.i, i32 %42)
  %indvars.iv.next.i = add nuw nsw i64 %indvars.iv.i, 1
  %exitcond.not.i = icmp eq i64 %indvars.iv.next.i, %wide.trip.count.i
  br i1 %exitcond.not.i, label %Fxch_ManComputeLevelCube.exit, label %36, !llvm.loop !93

Fxch_ManComputeLevelCube.exit:                    ; preds = %36, %33
  %.0.lcssa.i = phi i32 [ 0, %33 ], [ %43, %36 ]
  %44 = sext i32 %.120 to i64
  %45 = getelementptr inbounds i32, ptr %.val.i, i64 %44
  %46 = load i32, ptr %45, align 4, !tbaa !60
  %47 = icmp slt i32 %46, %.0.lcssa.i
  br i1 %47, label %48, label %Vec_IntUpdateEntry.exit

48:                                               ; preds = %Fxch_ManComputeLevelCube.exit
  store i32 %.0.lcssa.i, ptr %45, align 4, !tbaa !60
  br label %Vec_IntUpdateEntry.exit

Vec_IntUpdateEntry.exit:                          ; preds = %Fxch_ManComputeLevelCube.exit, %48
  %indvars.iv.next = add nuw nsw i64 %indvars.iv, 1
  %.val = load i32, ptr %20, align 4, !tbaa !17
  %49 = sext i32 %.val to i64
  %50 = icmp slt i64 %indvars.iv.next, %49
  br i1 %50, label %.lr.ph, label %.critedge, !llvm.loop !94

.critedge:                                        ; preds = %Vec_IntUpdateEntry.exit, %Vec_IntStart.exit
  ret void
}